target datalayout = "e-m:e-p270:32:32-p271:32:32-p272:64:64-i64:64-i128:128-f80:128-n8:16:32:64-S128"
target triple = "x86_64-pc-linux-gnu"

%struct.strvec = type { ptr, i64, i64 }
%struct.maintenance_run_opts = type { i32, i32, i32, i32 }
%struct.child_process = type { %struct.strvec, %struct.strvec, i32, i32, i64, ptr, ptr, i32, i32, i32, ptr, i16, ptr }

@.str.33 = private unnamed_addr constant [3 x i8] c"gc\00", align 1
@.str.99 = private unnamed_addr constant [7 x i8] c"--auto\00", align 1
@.str.133 = private unnamed_addr constant [8 x i8] c"--quiet\00", align 1
@.str.150 = private unnamed_addr constant [11 x i8] c"--no-quiet\00", align 1
@.str.151 = private unnamed_addr constant [12 x i8] c"--no-detach\00", align 1

; Function Attrs: nounwind uwtable
define internal i32 @maintenance_task_gc(ptr noundef %0, ptr noundef %1) #0 {
  %3 = alloca ptr, align 8
  %4 = alloca ptr, align 8
  %5 = alloca %struct.child_process, align 8
  store ptr %0, ptr %3, align 8, !tbaa !109
  store ptr %1, ptr %4, align 8, !tbaa !90
  call void @llvm.lifetime.start.p0(i64 120, ptr %5) #11
  call void @llvm.memcpy.p0.p0.i64(ptr align 8 %5, ptr align 8 @__const.maintenance_task_gc.child, i64 120, i1 false)
  %6 = getelementptr inbounds nuw %struct.child_process, ptr %5, i32 0, i32 11
  %7 = load i16, ptr %6, align 8
  %8 = and i16 %7, -65
  %9 = or i16 %8, 64
  store i16 %9, ptr %6, align 8
  %10 = getelementptr inbounds nuw %struct.child_process, ptr %5, i32 0, i32 11
  %11 = load i16, ptr %10, align 8
  %12 = and i16 %11, -9
  %13 = or i16 %12, 8
  store i16 %13, ptr %10, align 8
  %14 = getelementptr inbounds nuw %struct.child_process, ptr %5, i32 0, i32 0
  %15 = call ptr @strvec_push(ptr noundef %14, ptr noundef @.str.33)
  %16 = load ptr, ptr %3, align 8, !tbaa !109
  %17 = getelementptr inbounds nuw %struct.maintenance_run_opts, ptr %16, i32 0, i32 0
  %18 = load i32, ptr %17, align 4, !tbaa !47
  %19 = icmp ne i32 %18, 0
  br i1 %19, label %20, label %23

20:                                               ; preds = %2
  %21 = getelementptr inbounds nuw %struct.child_process, ptr %5, i32 0, i32 0
  %22 = call ptr @strvec_push(ptr noundef %21, ptr noundef @.str.99)
  br label %23

23:                                               ; preds = %20, %2
  %24 = load ptr, ptr %3, align 8, !tbaa !109
  %25 = getelementptr inbounds nuw %struct.maintenance_run_opts, ptr %24, i32 0, i32 2
  %26 = load i32, ptr %25, align 4, !tbaa !130
  %27 = icmp ne i32 %26, 0
  br i1 %27, label %28, label %31

28:                                               ; preds = %23
  %29 = getelementptr inbounds nuw %struct.child_process, ptr %5, i32 0, i32 0
  %30 = call ptr @strvec_push(ptr noundef %29, ptr noundef @.str.133)
  br label %34

31:                                               ; preds = %23
  %32 = getelementptr inbounds nuw %struct.child_process, ptr %5, i32 0, i32 0
  %33 = call ptr @strvec_push(ptr noundef %32, ptr noundef @.str.150)
  br label %34

34:                                               ; preds = %31, %28
  %35 = getelementptr inbounds nuw %struct.child_process, ptr %5, i32 0, i32 0
  %36 = call ptr @strvec_push(ptr noundef %35, ptr noundef @.str.151)
  %37 = call i32 @run_command(ptr noundef %5)
  call void @llvm.lifetime.end.p0(i64 120, ptr %5) #11
  ret i32 %37
}