; Function Attrs: nounwind uwtable
define internal i32 @maintenance_task_gc(ptr noundef readonly captures(none) %0, ptr readnone captures(none) %1) #0 {
  %3 = alloca %struct.child_process, align 8
  call void @llvm.lifetime.start.p0(i64 120, ptr nonnull %3) #21
  call void @llvm.memcpy.p0.p0.i64(ptr noundef nonnull align 8 dereferenceable(120) %3, ptr noundef nonnull align 8 dereferenceable(120) @__const.schtasks_remove_task.child, i64 120, i1 false)
  %4 = getelementptr inbounds nuw i8, ptr %3, i64 104
  store i16 72, ptr %4, align 8
  %5 = call ptr @strvec_push(ptr noundef nonnull %3, ptr noundef nonnull @.str.33) #21
  %6 = load i32, ptr %0, align 4, !tbaa !37
  %.not = icmp eq i32 %6, 0
  br i1 %.not, label %9, label %7

7:                                                ; preds = %2
  %8 = call ptr @strvec_push(ptr noundef nonnull %3, ptr noundef nonnull @.str.99) #21
  br label %9

9:                                                ; preds = %7, %2
  %10 = getelementptr inbounds nuw i8, ptr %0, i64 8
  %11 = load i32, ptr %10, align 4, !tbaa !115
  %.not2 = icmp eq i32 %11, 0
  %.str.150..str.133 = select i1 %.not2, ptr @.str.150, ptr @.str.133
  %12 = call ptr @strvec_push(ptr noundef nonnull %3, ptr noundef nonnull %.str.150..str.133) #21
  %13 = call ptr @strvec_push(ptr noundef nonnull %3, ptr noundef nonnull @.str.151) #21
  %14 = call i32 @run_command(ptr noundef nonnull %3) #21
  call void @llvm.lifetime.end.p0(i64 120, ptr nonnull %3) #21
  ret i32 %14
}